target datalayout = "e-m:e-p270:32:32-p271:32:32-p272:64:64-i64:64-i128:128-f80:128-n8:16:32:64-S128"
target triple = "x86_64-pc-linux-gnu"

%struct.URLContext = type { ptr, ptr, ptr, ptr, i32, i32, i32, i32, %struct.AVIOInterruptCB, i64, ptr, ptr, i32 }
%struct.AVIOInterruptCB = type { ptr, ptr }
%struct.URLProtocol = type { ptr, ptr, ptr, ptr, ptr, ptr, ptr, ptr, ptr, ptr, ptr, ptr, ptr, ptr, ptr, ptr, i32, i32, ptr, ptr, ptr, ptr, ptr, ptr, ptr }

; Function Attrs: nounwind uwtable
define i32 @ffurl_get_multi_file_handle(ptr noundef %0, ptr noundef %1, ptr noundef %2) #1 {
  %4 = alloca i32, align 4
  %5 = alloca ptr, align 8
  %6 = alloca ptr, align 8
  %7 = alloca ptr, align 8
  store ptr %0, ptr %5, align 8, !tbaa !22
  store ptr %1, ptr %6, align 8, !tbaa !118
  store ptr %2, ptr %7, align 8, !tbaa !120
  %8 = load ptr, ptr %5, align 8, !tbaa !22
  %9 = icmp ne ptr %8, null
  br i1 %9, label %10, label %15

10:                                               ; preds = %3
  %11 = load ptr, ptr %5, align 8, !tbaa !22
  %12 = getelementptr inbounds nuw %struct.URLContext, ptr %11, i32 0, i32 1
  %13 = load ptr, ptr %12, align 8, !tbaa !38
  %14 = icmp ne ptr %13, null
  br i1 %14, label %16, label %15

15:                                               ; preds = %10, %3
  store i32 -38, ptr %4, align 4
  br label %60

16:                                               ; preds = %10
  %17 = load ptr, ptr %5, align 8, !tbaa !22
  %18 = getelementptr inbounds nuw %struct.URLContext, ptr %17, i32 0, i32 1
  %19 = load ptr, ptr %18, align 8, !tbaa !38
  %20 = getelementptr inbounds nuw %struct.URLProtocol, ptr %19, i32 0, i32 12
  %21 = load ptr, ptr %20, align 8, !tbaa !122
  %22 = icmp ne ptr %21, null
  br i1 %22, label %50, label %23

23:                                               ; preds = %16
  %24 = load ptr, ptr %5, align 8, !tbaa !22
  %25 = getelementptr inbounds nuw %struct.URLContext, ptr %24, i32 0, i32 1
  %26 = load ptr, ptr %25, align 8, !tbaa !38
  %27 = getelementptr inbounds nuw %struct.URLProtocol, ptr %26, i32 0, i32 11
  %28 = load ptr, ptr %27, align 8, !tbaa !117
  %29 = icmp ne ptr %28, null
  br i1 %29, label %31, label %30

30:                                               ; preds = %23
  store i32 -38, ptr %4, align 4
  br label %60

31:                                               ; preds = %23
  %32 = call noalias ptr @av_malloc(i64 noundef 4)
  %33 = load ptr, ptr %6, align 8, !tbaa !118
  store ptr %32, ptr %33, align 8, !tbaa !120
  %34 = load ptr, ptr %6, align 8, !tbaa !118
  %35 = load ptr, ptr %34, align 8, !tbaa !120
  %36 = icmp ne ptr %35, null
  br i1 %36, label %38, label %37

37:                                               ; preds = %31
  store i32 -12, ptr %4, align 4
  br label %60

38:                                               ; preds = %31
  %39 = load ptr, ptr %7, align 8, !tbaa !120
  store i32 1, ptr %39, align 4, !tbaa !21
  %40 = load ptr, ptr %5, align 8, !tbaa !22
  %41 = getelementptr inbounds nuw %struct.URLContext, ptr %40, i32 0, i32 1
  %42 = load ptr, ptr %41, align 8, !tbaa !38
  %43 = getelementptr inbounds nuw %struct.URLProtocol, ptr %42, i32 0, i32 11
  %44 = load ptr, ptr %43, align 8, !tbaa !117
  %45 = load ptr, ptr %5, align 8, !tbaa !22
  %46 = call i32 %44(ptr noundef %45)
  %47 = load ptr, ptr %6, align 8, !tbaa !118
  %48 = getelementptr inbounds ptr, ptr %47, i64 0
  %49 = load ptr, ptr %48, align 8, !tbaa !120
  store i32 %46, ptr %49, align 4, !tbaa !21
  store i32 0, ptr %4, align 4
  br label %60

50:                                               ; preds = %16
  %51 = load ptr, ptr %5, align 8, !tbaa !22
  %52 = getelementptr inbounds nuw %struct.URLContext, ptr %51, i32 0, i32 1
  %53 = load ptr, ptr %52, align 8, !tbaa !38
  %54 = getelementptr inbounds nuw %struct.URLProtocol, ptr %53, i32 0, i32 12
  %55 = load ptr, ptr %54, align 8, !tbaa !122
  %56 = load ptr, ptr %5, align 8, !tbaa !22
  %57 = load ptr, ptr %6, align 8, !tbaa !118
  %58 = load ptr, ptr %7, align 8, !tbaa !120
  %59 = call i32 %55(ptr noundef %56, ptr noundef %57, ptr noundef %58)
  store i32 %59, ptr %4, align 4
  br label %60

60:                                               ; preds = %50, %38, %37, %30, %15
  %61 = load i32, ptr %4, align 4
  ret i32 %61
}