; Function Attrs: nounwind uwtable
define i32 @ffurl_get_multi_file_handle(ptr noundef %0, ptr noundef %1, ptr noundef %2) local_unnamed_addr #3 {
  %.not = icmp eq ptr %0, null
  br i1 %.not, label %23, label %4

4:                                                ; preds = %3
  %5 = getelementptr inbounds nuw i8, ptr %0, i64 8
  %6 = load ptr, ptr %5, align 8, !tbaa !21
  %.not17 = icmp eq ptr %6, null
  br i1 %.not17, label %23, label %7

7:                                                ; preds = %4
  %8 = getelementptr inbounds nuw i8, ptr %6, i64 96
  %9 = load ptr, ptr %8, align 8, !tbaa !101
  %.not18 = icmp eq ptr %9, null
  br i1 %.not18, label %10, label %21

10:                                               ; preds = %7
  %11 = getelementptr inbounds nuw i8, ptr %6, i64 88
  %12 = load ptr, ptr %11, align 8, !tbaa !100
  %.not19 = icmp eq ptr %12, null
  br i1 %.not19, label %23, label %13

13:                                               ; preds = %10
  %14 = tail call noalias ptr @av_malloc(i64 noundef 4) #12
  store ptr %14, ptr %1, align 8, !tbaa !102
  %.not20 = icmp eq ptr %14, null
  br i1 %.not20, label %23, label %15

15:                                               ; preds = %13
  store i32 1, ptr %2, align 4, !tbaa !104
  %16 = load ptr, ptr %5, align 8, !tbaa !21
  %17 = getelementptr inbounds nuw i8, ptr %16, i64 88
  %18 = load ptr, ptr %17, align 8, !tbaa !100
  %19 = tail call i32 %18(ptr noundef nonnull %0) #12
  %20 = load ptr, ptr %1, align 8, !tbaa !102
  store i32 %19, ptr %20, align 4, !tbaa !104
  br label %23

21:                                               ; preds = %7
  %22 = tail call i32 %9(ptr noundef nonnull %0, ptr noundef %1, ptr noundef %2) #12
  br label %23

23:                                               ; preds = %13, %10, %3, %4, %21, %15
  %.0 = phi i32 [ %22, %21 ], [ 0, %15 ], [ -38, %4 ], [ -38, %3 ], [ -38, %10 ], [ -12, %13 ]
  ret i32 %.0
}